(icarte
Carte
p0
(dp1
S'gameOver'
p2
I0
sS'nom'
p3
S'prison.'
p4
sS'_Carte__isDoor'
p5
I0
sS'labyrinthe'
p6
(lp7
(lp8
S'O'
p9
ag9
ag9
ag9
ag9
ag9
ag9
ag9
ag9
ag9
ag9
ag9
ag9
ag9
ag9
ag9
ag9
ag9
ag9
ag9
aa(lp10
g9
aS' '
p11
ag9
ag11
aS'.'
p12
ag11
ag9
ag11
ag11
ag11
ag11
ag9
ag11
ag12
ag11
ag11
ag11
ag11
ag11
ag9
aa(lp13
g9
ag12
ag9
ag11
ag9
ag11
ag9
ag11
ag11
ag11
ag11
ag9
ag11
ag9
ag11
ag11
ag11
ag11
ag11
ag9
aa(lp14
g9
ag11
ag9
ag11
ag9
ag11
ag9
ag11
ag11
ag11
ag11
ag9
ag11
ag9
ag11
ag11
ag11
ag11
ag11
ag9
aa(lp15
g9
ag12
ag9
ag11
ag9
ag11
ag12
ag11
ag11
ag11
ag11
ag9
ag11
ag9
ag11
ag11
ag11
ag11
ag11
ag9
aa(lp16
g9
ag11
ag9
ag11
ag9
ag11
ag9
ag9
ag9
ag9
ag9
ag9
ag11
ag9
ag11
ag11
ag11
ag11
ag11
ag9
aa(lp17
g9
ag11
ag9
ag11
ag9
ag11
ag11
ag11
ag11
ag11
ag11
ag11
ag11
ag9
ag11
ag11
ag11
ag11
ag11
ag9
aa(lp18
g9
ag11
ag9
ag11
ag9
ag9
ag9
ag9
ag9
ag9
ag9
ag9
ag9
ag9
ag11
ag11
ag11
ag11
ag11
ag9
aa(lp19
g9
ag12
ag9
ag11
ag12
ag11
ag11
ag11
ag11
ag11
ag11
ag11
ag11
ag9
ag11
ag11
ag11
ag11
ag11
ag9
aa(lp20
g9
ag11
ag9
ag11
ag9
ag11
ag11
ag11
ag11
ag11
ag11
ag11
ag11
ag9
ag11
ag11
ag11
ag11
ag11
ag9
aa(lp21
g9
ag11
ag9
ag11
ag9
ag11
ag11
ag11
ag11
ag11
ag11
ag11
ag11
ag9
ag11
ag11
ag11
ag11
ag11
ag9
aa(lp22
g9
ag11
ag9
ag12
ag9
ag11
ag11
ag11
ag11
ag11
ag11
ag11
ag11
ag9
ag11
ag11
ag11
ag11
ag11
ag9
aa(lp23
g9
ag12
ag9
ag11
ag12
ag11
ag11
ag11
ag11
ag11
ag11
ag11
ag11
ag9
ag11
ag11
ag11
ag11
ag11
ag9
aa(lp24
g9
aS'X'
p25
ag9
ag11
ag9
ag11
ag11
ag11
ag11
ag11
ag11
ag11
ag11
ag9
ag11
ag11
ag11
ag11
ag11
ag9
aa(lp26
g9
ag11
ag9
ag11
ag9
ag11
ag11
ag11
ag11
ag11
ag11
ag11
ag11
ag9
ag11
ag11
ag11
ag11
ag11
ag9
aa(lp27
g9
ag11
ag9
ag11
ag9
ag11
ag11
ag11
ag11
ag11
ag11
ag11
ag11
ag9
ag11
ag11
ag11
ag11
ag11
ag9
aa(lp28
g9
ag11
ag9
ag11
ag9
ag11
ag11
ag11
ag11
ag11
ag11
ag11
ag11
ag9
ag11
ag11
ag11
ag11
ag11
ag9
aa(lp29
g9
ag12
ag9
ag11
ag9
ag11
ag11
ag11
ag11
ag11
ag11
ag11
ag11
ag9
ag11
ag11
ag11
ag11
ag11
ag9
aa(lp30
g9
ag11
ag11
ag11
ag9
ag11
ag11
ag11
ag11
ag11
ag11
ag11
ag11
ag9
ag11
ag11
ag11
ag11
ag11
aS'U'
p31
aa(lp32
g9
ag9
ag9
ag9
ag9
ag9
ag9
ag9
ag9
ag9
ag9
ag9
ag9
ag9
ag9
ag9
ag9
ag9
ag9
ag9
aasb.