(icarte
Carte
p0
(dp1
S'gameOver'
p2
I1
sS'nom'
p3
S'facile.'
p4
sS'_Carte__isDoor'
p5
I0
sS'labyrinthe'
p6
(lp7
(lp8
S'O'
p9
ag9
ag9
ag9
ag9
ag9
ag9
ag9
ag9
ag9
aa(lp10
g9
aS' '
p11
ag9
ag11
ag11
ag11
ag11
ag9
ag11
ag9
aa(lp12
g9
ag11
aS'.'
p13
ag11
ag9
ag9
ag11
ag11
ag11
ag9
aa(lp14
g9
ag11
ag9
ag11
ag9
ag11
ag11
ag11
ag11
ag9
aa(lp15
g9
ag11
ag9
ag9
ag9
ag9
ag11
ag9
ag13
ag9
aa(lp16
g9
ag11
ag9
ag11
ag9
ag11
ag11
ag11
ag11
aS'X'
p17
aa(lp18
g9
ag11
ag9
ag9
ag9
ag9
ag9
ag9
ag13
ag9
aa(lp19
g9
ag11
ag9
ag11
ag11
ag11
ag11
ag11
ag11
ag9
aa(lp20
g9
ag11
ag9
ag11
ag9
ag9
ag9
ag9
ag9
ag9
aa(lp21
g9
ag11
ag13
ag11
ag9
ag11
ag11
ag11
ag11
ag9
aa(lp22
g9
ag9
ag9
ag9
ag9
ag9
ag9
ag9
ag9
ag9
ag11
aasb.